target datalayout = "e-m:e-p270:32:32-p271:32:32-p272:64:64-i64:64-i128:128-f80:128-n8:16:32:64-S128"
target triple = "x86_64-pc-linux-gnu"

; Function Attrs: nounwind uwtable
define internal void @float_to_fixed24_c(ptr noundef %0, ptr noundef %1, i64 noundef %2) #0 {
  %4 = alloca ptr, align 8
  %5 = alloca ptr, align 8
  %6 = alloca i64, align 8
  %7 = alloca float, align 4
  store ptr %0, ptr %4, align 8, !tbaa !24
  store ptr %1, ptr %5, align 8, !tbaa !38
  store i64 %2, ptr %6, align 8, !tbaa !26
  call void @llvm.lifetime.start.p0(i64 4, ptr %7) #6
  store float 0x4170000000000000, ptr %7, align 4, !tbaa !40
  br label %8

8:                                                ; preds = %75, %3
  %9 = load ptr, ptr %5, align 8, !tbaa !38
  %10 = getelementptr inbounds nuw float, ptr %9, i32 1
  store ptr %10, ptr %5, align 8, !tbaa !38
  %11 = load float, ptr %9, align 4, !tbaa !40
  %12 = fmul nsz float %11, 0x4170000000000000
  %13 = call i64 @llvm.lrint.i64.f32(float %12)
  %14 = trunc i64 %13 to i32
  %15 = load ptr, ptr %4, align 8, !tbaa !24
  %16 = getelementptr inbounds nuw i32, ptr %15, i32 1
  store ptr %16, ptr %4, align 8, !tbaa !24
  store i32 %14, ptr %15, align 4, !tbaa !14
  %17 = load ptr, ptr %5, align 8, !tbaa !38
  %18 = getelementptr inbounds nuw float, ptr %17, i32 1
  store ptr %18, ptr %5, align 8, !tbaa !38
  %19 = load float, ptr %17, align 4, !tbaa !40
  %20 = fmul nsz float %19, 0x4170000000000000
  %21 = call i64 @llvm.lrint.i64.f32(float %20)
  %22 = trunc i64 %21 to i32
  %23 = load ptr, ptr %4, align 8, !tbaa !24
  %24 = getelementptr inbounds nuw i32, ptr %23, i32 1
  store ptr %24, ptr %4, align 8, !tbaa !24
  store i32 %22, ptr %23, align 4, !tbaa !14
  %25 = load ptr, ptr %5, align 8, !tbaa !38
  %26 = getelementptr inbounds nuw float, ptr %25, i32 1
  store ptr %26, ptr %5, align 8, !tbaa !38
  %27 = load float, ptr %25, align 4, !tbaa !40
  %28 = fmul nsz float %27, 0x4170000000000000
  %29 = call i64 @llvm.lrint.i64.f32(float %28)
  %30 = trunc i64 %29 to i32
  %31 = load ptr, ptr %4, align 8, !tbaa !24
  %32 = getelementptr inbounds nuw i32, ptr %31, i32 1
  store ptr %32, ptr %4, align 8, !tbaa !24
  store i32 %30, ptr %31, align 4, !tbaa !14
  %33 = load ptr, ptr %5, align 8, !tbaa !38
  %34 = getelementptr inbounds nuw float, ptr %33, i32 1
  store ptr %34, ptr %5, align 8, !tbaa !38
  %35 = load float, ptr %33, align 4, !tbaa !40
  %36 = fmul nsz float %35, 0x4170000000000000
  %37 = call i64 @llvm.lrint.i64.f32(float %36)
  %38 = trunc i64 %37 to i32
  %39 = load ptr, ptr %4, align 8, !tbaa !24
  %40 = getelementptr inbounds nuw i32, ptr %39, i32 1
  store ptr %40, ptr %4, align 8, !tbaa !24
  store i32 %38, ptr %39, align 4, !tbaa !14
  %41 = load ptr, ptr %5, align 8, !tbaa !38
  %42 = getelementptr inbounds nuw float, ptr %41, i32 1
  store ptr %42, ptr %5, align 8, !tbaa !38
  %43 = load float, ptr %41, align 4, !tbaa !40
  %44 = fmul nsz float %43, 0x4170000000000000
  %45 = call i64 @llvm.lrint.i64.f32(float %44)
  %46 = trunc i64 %45 to i32
  %47 = load ptr, ptr %4, align 8, !tbaa !24
  %48 = getelementptr inbounds nuw i32, ptr %47, i32 1
  store ptr %48, ptr %4, align 8, !tbaa !24
  store i32 %46, ptr %47, align 4, !tbaa !14
  %49 = load ptr, ptr %5, align 8, !tbaa !38
  %50 = getelementptr inbounds nuw float, ptr %49, i32 1
  store ptr %50, ptr %5, align 8, !tbaa !38
  %51 = load float, ptr %49, align 4, !tbaa !40
  %52 = fmul nsz float %51, 0x4170000000000000
  %53 = call i64 @llvm.lrint.i64.f32(float %52)
  %54 = trunc i64 %53 to i32
  %55 = load ptr, ptr %4, align 8, !tbaa !24
  %56 = getelementptr inbounds nuw i32, ptr %55, i32 1
  store ptr %56, ptr %4, align 8, !tbaa !24
  store i32 %54, ptr %55, align 4, !tbaa !14
  %57 = load ptr, ptr %5, align 8, !tbaa !38
  %58 = getelementptr inbounds nuw float, ptr %57, i32 1
  store ptr %58, ptr %5, align 8, !tbaa !38
  %59 = load float, ptr %57, align 4, !tbaa !40
  %60 = fmul nsz float %59, 0x4170000000000000
  %61 = call i64 @llvm.lrint.i64.f32(float %60)
  %62 = trunc i64 %61 to i32
  %63 = load ptr, ptr %4, align 8, !tbaa !24
  %64 = getelementptr inbounds nuw i32, ptr %63, i32 1
  store ptr %64, ptr %4, align 8, !tbaa !24
  store i32 %62, ptr %63, align 4, !tbaa !14
  %65 = load ptr, ptr %5, align 8, !tbaa !38
  %66 = getelementptr inbounds nuw float, ptr %65, i32 1
  store ptr %66, ptr %5, align 8, !tbaa !38
  %67 = load float, ptr %65, align 4, !tbaa !40
  %68 = fmul nsz float %67, 0x4170000000000000
  %69 = call i64 @llvm.lrint.i64.f32(float %68)
  %70 = trunc i64 %69 to i32
  %71 = load ptr, ptr %4, align 8, !tbaa !24
  %72 = getelementptr inbounds nuw i32, ptr %71, i32 1
  store ptr %72, ptr %4, align 8, !tbaa !24
  store i32 %70, ptr %71, align 4, !tbaa !14
  %73 = load i64, ptr %6, align 8, !tbaa !26
  %74 = sub i64 %73, 8
  store i64 %74, ptr %6, align 8, !tbaa !26
  br label %75

75:                                               ; preds = %8
  %76 = load i64, ptr %6, align 8, !tbaa !26
  %77 = icmp ugt i64 %76, 0
  br i1 %77, label %8, label %78, !llvm.loop !61

78:                                               ; preds = %75
  call void @llvm.lifetime.end.p0(i64 4, ptr %7) #6
  ret void
}