; Function Attrs: nofree norecurse nosync nounwind memory(argmem: readwrite) uwtable
define internal void @float_to_fixed24_c(ptr noundef writeonly captures(none) %0, ptr noundef readonly captures(none) %1, i64 noundef %2) #3 {
  br label %4

4:                                                ; preds = %4, %3
  %.018 = phi ptr [ %1, %3 ], [ %47, %4 ]
  %.017 = phi i64 [ %2, %3 ], [ %53, %4 ]
  %.0 = phi ptr [ %0, %3 ], [ %52, %4 ]
  %5 = getelementptr inbounds nuw i8, ptr %.018, i64 4
  %6 = load float, ptr %.018, align 4, !tbaa !29
  %7 = fmul nsz float %6, 0x4170000000000000
  %8 = tail call i64 @llvm.lrint.i64.f32(float %7)
  %9 = trunc i64 %8 to i32
  %10 = getelementptr inbounds nuw i8, ptr %.0, i64 4
  store i32 %9, ptr %.0, align 4, !tbaa !18
  %11 = getelementptr inbounds nuw i8, ptr %.018, i64 8
  %12 = load float, ptr %5, align 4, !tbaa !29
  %13 = fmul nsz float %12, 0x4170000000000000
  %14 = tail call i64 @llvm.lrint.i64.f32(float %13)
  %15 = trunc i64 %14 to i32
  %16 = getelementptr inbounds nuw i8, ptr %.0, i64 8
  store i32 %15, ptr %10, align 4, !tbaa !18
  %17 = getelementptr inbounds nuw i8, ptr %.018, i64 12
  %18 = load float, ptr %11, align 4, !tbaa !29
  %19 = fmul nsz float %18, 0x4170000000000000
  %20 = tail call i64 @llvm.lrint.i64.f32(float %19)
  %21 = trunc i64 %20 to i32
  %22 = getelementptr inbounds nuw i8, ptr %.0, i64 12
  store i32 %21, ptr %16, align 4, !tbaa !18
  %23 = getelementptr inbounds nuw i8, ptr %.018, i64 16
  %24 = load float, ptr %17, align 4, !tbaa !29
  %25 = fmul nsz float %24, 0x4170000000000000
  %26 = tail call i64 @llvm.lrint.i64.f32(float %25)
  %27 = trunc i64 %26 to i32
  %28 = getelementptr inbounds nuw i8, ptr %.0, i64 16
  store i32 %27, ptr %22, align 4, !tbaa !18
  %29 = getelementptr inbounds nuw i8, ptr %.018, i64 20
  %30 = load float, ptr %23, align 4, !tbaa !29
  %31 = fmul nsz float %30, 0x4170000000000000
  %32 = tail call i64 @llvm.lrint.i64.f32(float %31)
  %33 = trunc i64 %32 to i32
  %34 = getelementptr inbounds nuw i8, ptr %.0, i64 20
  store i32 %33, ptr %28, align 4, !tbaa !18
  %35 = getelementptr inbounds nuw i8, ptr %.018, i64 24
  %36 = load float, ptr %29, align 4, !tbaa !29
  %37 = fmul nsz float %36, 0x4170000000000000
  %38 = tail call i64 @llvm.lrint.i64.f32(float %37)
  %39 = trunc i64 %38 to i32
  %40 = getelementptr inbounds nuw i8, ptr %.0, i64 24
  store i32 %39, ptr %34, align 4, !tbaa !18
  %41 = getelementptr inbounds nuw i8, ptr %.018, i64 28
  %42 = load float, ptr %35, align 4, !tbaa !29
  %43 = fmul nsz float %42, 0x4170000000000000
  %44 = tail call i64 @llvm.lrint.i64.f32(float %43)
  %45 = trunc i64 %44 to i32
  %46 = getelementptr inbounds nuw i8, ptr %.0, i64 28
  store i32 %45, ptr %40, align 4, !tbaa !18
  %47 = getelementptr inbounds nuw i8, ptr %.018, i64 32
  %48 = load float, ptr %41, align 4, !tbaa !29
  %49 = fmul nsz float %48, 0x4170000000000000
  %50 = tail call i64 @llvm.lrint.i64.f32(float %49)
  %51 = trunc i64 %50 to i32
  %52 = getelementptr inbounds nuw i8, ptr %.0, i64 32
  store i32 %51, ptr %46, align 4, !tbaa !18
  %53 = add i64 %.017, -8
  %.not = icmp eq i64 %53, 0
  br i1 %.not, label %54, label %4, !llvm.loop !48

54:                                               ; preds = %4
  ret void
}